target datalayout = "e-m:e-p270:32:32-p271:32:32-p272:64:64-i64:64-i128:128-f80:128-n8:16:32:64-S128"
target triple = "x86_64-pc-linux-gnu"

%"struct.faiss::IndexIVF" = type <{ %"struct.faiss::Index.base", [4 x i8], %"struct.faiss::IndexIVFInterface", ptr, i8, [7 x i8], i64, i32, i32, %"struct.faiss::DirectMap", i8, [7 x i8] }>
%"struct.faiss::Index.base" = type <{ ptr, i32, [4 x i8], i64, i8, i8, [2 x i8], i32, float }>
%"struct.faiss::IndexIVFInterface" = type { ptr, %"struct.faiss::Level1Quantizer", i64, i64 }
%"struct.faiss::Level1Quantizer" = type { ptr, i64, i8, i8, [6 x i8], %"struct.faiss::ClusteringParameters", ptr }
%"struct.faiss::ClusteringParameters" = type <{ i32, i32, i8, i8, i8, i8, i8, [3 x i8], i32, i32, i32, [4 x i8], i64, i8, i8, [6 x i8] }>
%"struct.faiss::DirectMap" = type { i32, %"class.std::vector", %"class.std::unordered_map" }
%"class.std::vector" = type { %"struct.std::_Vector_base" }
%"struct.std::_Vector_base" = type { %"struct.std::_Vector_base<long, std::allocator<long>>::_Vector_impl" }
%"struct.std::_Vector_base<long, std::allocator<long>>::_Vector_impl" = type { %"struct.std::_Vector_base<long, std::allocator<long>>::_Vector_impl_data" }
%"struct.std::_Vector_base<long, std::allocator<long>>::_Vector_impl_data" = type { ptr, ptr, ptr }
%"class.std::unordered_map" = type { %"class.std::_Hashtable" }
%"class.std::_Hashtable" = type { ptr, i64, %"struct.std::__detail::_Hash_node_base", i64, %"struct.std::__detail::_Prime_rehash_policy", ptr }
%"struct.std::__detail::_Hash_node_base" = type { ptr }
%"struct.std::__detail::_Prime_rehash_policy" = type { float, i64 }

; Function Attrs: mustprogress uwtable
define void @_ZN5faiss12IndexIVFFlatC2EPNS_5IndexEmmNS_10MetricTypeE(ptr noundef nonnull align 8 dereferenceable(265) %0, ptr noundef %1, i64 noundef %2, i64 noundef %3, i32 noundef %4) unnamed_addr #3 align 2 {
  %6 = alloca ptr, align 8
  %7 = alloca ptr, align 8
  %8 = alloca i64, align 8
  %9 = alloca i64, align 8
  %10 = alloca i32, align 4
  store ptr %0, ptr %6, align 8, !tbaa !4
  store ptr %1, ptr %7, align 8, !tbaa !84
  store i64 %2, ptr %8, align 8, !tbaa !9
  store i64 %3, ptr %9, align 8, !tbaa !9
  store i32 %4, ptr %10, align 4, !tbaa !85
  %11 = load ptr, ptr %6, align 8
  %12 = load ptr, ptr %7, align 8, !tbaa !84
  %13 = load i64, ptr %8, align 8, !tbaa !9
  %14 = load i64, ptr %9, align 8, !tbaa !9
  %15 = load i64, ptr %8, align 8, !tbaa !9
  %16 = mul i64 4, %15
  %17 = load i32, ptr %10, align 4, !tbaa !85
  call void @_ZN5faiss8IndexIVFC2EPNS_5IndexEmmmNS_10MetricTypeE(ptr noundef nonnull align 8 dereferenceable(265) %11, ptr noundef %12, i64 noundef %13, i64 noundef %14, i64 noundef %16, i32 noundef %17)
  store ptr getelementptr inbounds inrange(-16, 272) ({ [36 x ptr], [6 x ptr] }, ptr @_ZTVN5faiss12IndexIVFFlatE, i32 0, i32 0, i32 2), ptr %11, align 8, !tbaa !57
  %18 = getelementptr inbounds i8, ptr %11, i64 40
  store ptr getelementptr inbounds inrange(-16, 32) ({ [36 x ptr], [6 x ptr] }, ptr @_ZTVN5faiss12IndexIVFFlatE, i32 0, i32 1, i32 2), ptr %18, align 8, !tbaa !57
  %19 = load i64, ptr %8, align 8, !tbaa !9
  %20 = mul i64 4, %19
  %21 = getelementptr inbounds nuw %"struct.faiss::IndexIVF", ptr %11, i32 0, i32 6
  store i64 %20, ptr %21, align 8, !tbaa !15
  %22 = getelementptr inbounds nuw %"struct.faiss::IndexIVF", ptr %11, i32 0, i32 10
  store i8 0, ptr %22, align 8, !tbaa !49
  ret void
}