; Function Attrs: mustprogress uwtable
define void @_ZN5faiss12IndexIVFFlatC2EPNS_5IndexEmmNS_10MetricTypeE(ptr noundef nonnull align 8 dereferenceable(265) %0, ptr noundef %1, i64 noundef %2, i64 noundef %3, i32 noundef %4) unnamed_addr #3 align 2 {
  %6 = shl i64 %2, 2
  tail call void @_ZN5faiss8IndexIVFC2EPNS_5IndexEmmmNS_10MetricTypeE(ptr noundef nonnull align 8 dereferenceable(265) %0, ptr noundef %1, i64 noundef %2, i64 noundef %3, i64 noundef %6, i32 noundef %4)
  store ptr getelementptr inbounds nuw inrange(-16, 272) (i8, ptr @_ZTVN5faiss12IndexIVFFlatE, i64 16), ptr %0, align 8, !tbaa !62
  %7 = getelementptr inbounds nuw i8, ptr %0, i64 40
  store ptr getelementptr inbounds nuw inrange(-16, 32) (i8, ptr @_ZTVN5faiss12IndexIVFFlatE, i64 304), ptr %7, align 8, !tbaa !62
  %8 = getelementptr inbounds nuw i8, ptr %0, i64 160
  store i64 %6, ptr %8, align 8, !tbaa !4
  %9 = getelementptr inbounds nuw i8, ptr %0, i64 264
  store i8 0, ptr %9, align 8, !tbaa !51
  ret void
}